; Function Attrs: mustprogress uwtable
define dso_local void @_ZN22b3DynamicBvhBroadphase9resetPoolEP12b3Dispatcher(ptr noundef nonnull align 8 dereferenceable(315) %this, ptr nocapture readnone %dispatcher) unnamed_addr #0 align 2 {
entry:
  %m_leaves = getelementptr inbounds i8, ptr %this, i64 28
  %0 = load i32, ptr %m_leaves, align 4
  %m_leaves4 = getelementptr inbounds i8, ptr %this, i64 124
  %1 = load i32, ptr %m_leaves4, align 4
  %add = sub i32 0, %1
  %tobool.not = icmp eq i32 %0, %add
  br i1 %tobool.not, label %if.then, label %if.end

if.then:                                          ; preds = %entry
  %arrayidx3 = getelementptr inbounds i8, ptr %this, i64 104
  %m_sets = getelementptr inbounds i8, ptr %this, i64 8
  tail call void @_ZN12b3DynamicBvh5clearEv(ptr noundef nonnull align 8 dereferenceable(96) %m_sets)
  tail call void @_ZN12b3DynamicBvh5clearEv(ptr noundef nonnull align 8 dereferenceable(96) %arrayidx3)
  %m_deferedcollide = getelementptr inbounds i8, ptr %this, i64 313
  store i8 0, ptr %m_deferedcollide, align 1
  %m_needcleanup = getelementptr inbounds i8, ptr %this, i64 314
  store i8 1, ptr %m_needcleanup, align 2
  %m_stageCurrent = getelementptr inbounds i8, ptr %this, i64 268
  %m_fixedleft = getelementptr inbounds i8, ptr %this, i64 288
  store i32 0, ptr %m_fixedleft, align 8
  store <4 x i32> <i32 0, i32 1, i32 0, i32 10>, ptr %m_stageCurrent, align 4
  %m_newpairs = getelementptr inbounds i8, ptr %this, i64 284
  store i32 1, ptr %m_newpairs, align 4
  %m_updates_call = getelementptr inbounds i8, ptr %this, i64 292
  %m_stageRoots = getelementptr inbounds i8, ptr %this, i64 200
  tail call void @llvm.memset.p0.i64(ptr noundef nonnull align 8 dereferenceable(24) %m_stageRoots, i8 0, i64 24, i1 false)
  tail call void @llvm.memset.p0.i64(ptr noundef nonnull align 4 dereferenceable(20) %m_updates_call, i8 0, i64 20, i1 false)
  br label %if.end

if.end:                                           ; preds = %if.then, %entry
  ret void
}